target datalayout = "e-m:e-p270:32:32-p271:32:32-p272:64:64-i64:64-i128:128-f80:128-n8:16:32:64-S128"
target triple = "x86_64-unknown-linux-gnu"

%"class.absl::lts_20230802::log_internal::LogMessageFatal" = type { %"class.absl::lts_20230802::log_internal::LogMessage" }
%"class.absl::lts_20230802::log_internal::LogMessage" = type { %"class.absl::lts_20230802::base_internal::ErrnoSaver", %"class.std::unique_ptr" }
%"class.absl::lts_20230802::base_internal::ErrnoSaver" = type { i32 }
%"class.std::unique_ptr" = type { %"struct.std::__uniq_ptr_data" }
%"struct.std::__uniq_ptr_data" = type { %"class.std::__uniq_ptr_impl" }
%"class.std::__uniq_ptr_impl" = type { %"class.std::tuple" }
%"class.std::tuple" = type { %"struct.std::_Tuple_impl" }
%"struct.std::_Tuple_impl" = type { %"struct.std::_Head_base.1" }
%"struct.std::_Head_base.1" = type { ptr }
%"class.std::basic_string_view" = type { i64, ptr }
%struct.z_stream_s = type { ptr, i32, i64, ptr, i32, i64, ptr, ptr, ptr, ptr, ptr, i32, i64, i64 }
%"class.google::protobuf::io::GzipOutputStream" = type { %"class.google::protobuf::io::ZeroCopyOutputStream", ptr, ptr, i32, %struct.z_stream_s, i32, ptr, i64 }
%"class.google::protobuf::io::ZeroCopyOutputStream" = type { ptr }

@.str = private unnamed_addr constant [133 x i8] c"generated/home/dtcxzyw/WorkSpace/Projects/compilers/llvm-opt-benchmark/bench/protobuf/protobuf/src/google/protobuf/io/gzip_stream.cc\00", align 1
@.str.5 = private unnamed_addr constant [47 x i8] c"zcontext_.avail_in >= static_cast<uInt>(count)\00", align 1

; Function Attrs: mustprogress nounwind uwtable
define linkonce_odr hidden noundef nonnull align 8 dereferenceable(16) ptr @_ZN4absl12lts_2023080212log_internal10LogMessage14InternalStreamEv(ptr noundef nonnull align 8 dereferenceable(16) %this) #5 comdat align 2 {
entry:
  %this.addr = alloca ptr, align 8
  store ptr %this, ptr %this.addr, align 8
  %this1 = load ptr, ptr %this.addr, align 8
  ret ptr %this1
}

; Function Attrs: mustprogress uwtable
define linkonce_odr hidden noundef ptr @_ZN4absl12lts_2023080212log_internal12Check_GEImplIjjEEPNSt7__cxx1112basic_stringIcSt11char_traitsIcESaIcEEERKT_RKT0_PKc(ptr noundef nonnull align 4 dereferenceable(4) %v1, ptr noundef nonnull align 4 dereferenceable(4) %v2, ptr noundef %exprtext) #4 comdat {
entry:
  %v1.addr = alloca ptr, align 8
  %v2.addr = alloca ptr, align 8
  %exprtext.addr = alloca ptr, align 8
  store ptr %v1, ptr %v1.addr, align 8
  store ptr %v2, ptr %v2.addr, align 8
  store ptr %exprtext, ptr %exprtext.addr, align 8
  %0 = load ptr, ptr %v1.addr, align 8
  %1 = load i32, ptr %0, align 4
  %2 = load ptr, ptr %v2.addr, align 8
  %3 = load i32, ptr %2, align 4
  %cmp = icmp uge i32 %1, %3
  br i1 %cmp, label %cond.true, label %cond.false

cond.true:                                        ; preds = %entry
  br label %cond.end

cond.false:                                       ; preds = %entry
  %4 = load ptr, ptr %v1.addr, align 8
  %5 = load i32, ptr %4, align 4
  %conv = zext i32 %5 to i64
  %6 = load ptr, ptr %v2.addr, align 8
  %7 = load i32, ptr %6, align 4
  %conv1 = zext i32 %7 to i64
  %8 = load ptr, ptr %exprtext.addr, align 8
  %call = call noundef nonnull ptr @_ZN4absl12lts_2023080212log_internal17MakeCheckOpStringIllEEPNSt7__cxx1112basic_stringIcSt11char_traitsIcESaIcEEET_T0_PKc(i64 noundef %conv, i64 noundef %conv1, ptr noundef %8)
  br label %cond.end

cond.end:                                         ; preds = %cond.false, %cond.true
  %cond = phi ptr [ null, %cond.true ], [ %call, %cond.false ]
  ret ptr %cond
}

; Function Attrs: mustprogress nounwind uwtable
define linkonce_odr hidden noundef i32 @_ZN4absl12lts_2023080212log_internal21GetReferenceableValueEj(i32 noundef %t) #5 comdat {
entry:
  %t.addr = alloca i32, align 4
  store i32 %t, ptr %t.addr, align 4
  %0 = load i32, ptr %t.addr, align 4
  ret i32 %0
}

; Function Attrs: mustprogress uwtable
define void @_ZN6google8protobuf2io16GzipOutputStream6BackUpEi(ptr noundef nonnull align 8 dereferenceable(168) %this, i32 noundef %count) unnamed_addr #4 align 2 personality ptr @__gxx_personality_v0 {
entry:
  %this.addr = alloca ptr, align 8
  %count.addr = alloca i32, align 4
  %absl_log_internal_check_op_result = alloca ptr, align 8
  %ref.tmp = alloca i32, align 4
  %ref.tmp2 = alloca i32, align 4
  %ref.tmp5 = alloca %"class.absl::lts_20230802::log_internal::LogMessageFatal", align 8
  %agg.tmp = alloca %"class.std::basic_string_view", align 8
  %exn.slot = alloca ptr, align 8
  %ehselector.slot = alloca i32, align 4
  store ptr %this, ptr %this.addr, align 8
  store i32 %count, ptr %count.addr, align 4
  %this1 = load ptr, ptr %this.addr, align 8
  br label %while.cond

while.cond:                                       ; preds = %entry
  %zcontext_ = getelementptr inbounds %"class.google::protobuf::io::GzipOutputStream", ptr %this1, i32 0, i32 4
  %avail_in = getelementptr inbounds %struct.z_stream_s, ptr %zcontext_, i32 0, i32 1
  %0 = load i32, ptr %avail_in, align 8
  %call = call noundef i32 @_ZN4absl12lts_2023080212log_internal21GetReferenceableValueEj(i32 noundef %0)
  store i32 %call, ptr %ref.tmp, align 4
  %1 = load i32, ptr %count.addr, align 4
  %call3 = call noundef i32 @_ZN4absl12lts_2023080212log_internal21GetReferenceableValueEj(i32 noundef %1)
  store i32 %call3, ptr %ref.tmp2, align 4
  %call4 = call noundef ptr @_ZN4absl12lts_2023080212log_internal12Check_GEImplIjjEEPNSt7__cxx1112basic_stringIcSt11char_traitsIcESaIcEEERKT_RKT0_PKc(ptr noundef nonnull align 4 dereferenceable(4) %ref.tmp, ptr noundef nonnull align 4 dereferenceable(4) %ref.tmp2, ptr noundef @.str.5)
  store ptr %call4, ptr %absl_log_internal_check_op_result, align 8
  %2 = load ptr, ptr %absl_log_internal_check_op_result, align 8
  %tobool = icmp ne ptr %2, null
  br i1 %tobool, label %while.body, label %while.end

while.body:                                       ; preds = %while.cond
  %3 = load ptr, ptr %absl_log_internal_check_op_result, align 8
  %call6 = call { i64, ptr } @_ZNKSt7__cxx1112basic_stringIcSt11char_traitsIcESaIcEEcvSt17basic_string_viewIcS2_EEv(ptr noundef nonnull align 8 dereferenceable(32) %3) #3
  %4 = getelementptr inbounds { i64, ptr }, ptr %agg.tmp, i32 0, i32 0
  %5 = extractvalue { i64, ptr } %call6, 0
  store i64 %5, ptr %4, align 8
  %6 = getelementptr inbounds { i64, ptr }, ptr %agg.tmp, i32 0, i32 1
  %7 = extractvalue { i64, ptr } %call6, 1
  store ptr %7, ptr %6, align 8
  %8 = getelementptr inbounds { i64, ptr }, ptr %agg.tmp, i32 0, i32 0
  %9 = load i64, ptr %8, align 8
  %10 = getelementptr inbounds { i64, ptr }, ptr %agg.tmp, i32 0, i32 1
  %11 = load ptr, ptr %10, align 8
  call void @_ZN4absl12lts_2023080212log_internal15LogMessageFatalC1EPKciSt17basic_string_viewIcSt11char_traitsIcEE(ptr noundef nonnull align 8 dereferenceable(16) %ref.tmp5, ptr noundef @.str, i32 noundef 280, i64 %9, ptr %11) #12
  %call7 = invoke noundef nonnull align 8 dereferenceable(16) ptr @_ZN4absl12lts_2023080212log_internal10LogMessage14InternalStreamEv(ptr noundef nonnull align 8 dereferenceable(16) %ref.tmp5)
          to label %invoke.cont unwind label %lpad

invoke.cont:                                      ; preds = %while.body
  call void @_ZN4absl12lts_2023080212log_internal15LogMessageFatalD1Ev(ptr noundef nonnull align 8 dereferenceable(16) %ref.tmp5) #13
  unreachable

lpad:                                             ; preds = %while.body
  %12 = landingpad { ptr, i32 }
          cleanup
  %13 = extractvalue { ptr, i32 } %12, 0
  store ptr %13, ptr %exn.slot, align 8
  %14 = extractvalue { ptr, i32 } %12, 1
  store i32 %14, ptr %ehselector.slot, align 4
  call void @_ZN4absl12lts_2023080212log_internal15LogMessageFatalD1Ev(ptr noundef nonnull align 8 dereferenceable(16) %ref.tmp5) #13
  unreachable

15:                                               ; No predecessors!
  br label %eh.resume

while.end:                                        ; preds = %while.cond
  %16 = load i32, ptr %count.addr, align 4
  %zcontext_8 = getelementptr inbounds %"class.google::protobuf::io::GzipOutputStream", ptr %this1, i32 0, i32 4
  %avail_in9 = getelementptr inbounds %struct.z_stream_s, ptr %zcontext_8, i32 0, i32 1
  %17 = load i32, ptr %avail_in9, align 8
  %sub = sub i32 %17, %16
  store i32 %sub, ptr %avail_in9, align 8
  ret void

eh.resume:                                        ; preds = %15
  %exn = load ptr, ptr %exn.slot, align 8
  %sel = load i32, ptr %ehselector.slot, align 4
  %lpad.val = insertvalue { ptr, i32 } poison, ptr %exn, 0
  %lpad.val10 = insertvalue { ptr, i32 } %lpad.val, i32 %sel, 1
  resume { ptr, i32 } %lpad.val10
}