; Function Attrs: mustprogress uwtable
define void @_ZN6google8protobuf2io16GzipOutputStream6BackUpEi(ptr nocapture noundef nonnull align 8 dereferenceable(168) %this, i32 noundef %count) unnamed_addr #3 align 2 personality ptr @__gxx_personality_v0 {
entry:
  %ref.tmp5 = alloca %"class.absl::lts_20230802::log_internal::LogMessageFatal", align 8
  %avail_in = getelementptr inbounds i8, ptr %this, i64 40
  %0 = load i32, ptr %avail_in, align 8
  %cmp.not.i = icmp ult i32 %0, %count
  br i1 %cmp.not.i, label %while.body, label %while.end

while.body:                                       ; preds = %entry
  %conv.i = zext i32 %0 to i64
  %conv1.i = zext i32 %count to i64
  %call.i = tail call noundef nonnull ptr @_ZN4absl12lts_2023080212log_internal17MakeCheckOpStringIllEEPNSt7__cxx1112basic_stringIcSt11char_traitsIcESaIcEEET_T0_PKc(i64 noundef %conv.i, i64 noundef %conv1.i, ptr noundef nonnull @.str.5)
  %call6 = tail call { i64, ptr } @_ZNKSt7__cxx1112basic_stringIcSt11char_traitsIcESaIcEEcvSt17basic_string_viewIcS2_EEv(ptr noundef nonnull align 8 dereferenceable(32) %call.i) #16
  %1 = extractvalue { i64, ptr } %call6, 0
  %2 = extractvalue { i64, ptr } %call6, 1
  call void @_ZN4absl12lts_2023080212log_internal15LogMessageFatalC1EPKciSt17basic_string_viewIcSt11char_traitsIcEE(ptr noundef nonnull align 8 dereferenceable(16) %ref.tmp5, ptr noundef nonnull @.str, i32 noundef 280, i64 %1, ptr %2) #19
  call void @_ZN4absl12lts_2023080212log_internal15LogMessageFatalD1Ev(ptr noundef nonnull align 8 dereferenceable(16) %ref.tmp5) #17
  unreachable

while.end:                                        ; preds = %entry
  %sub = sub i32 %0, %count
  store i32 %sub, ptr %avail_in, align 8
  ret void
}